; Function Attrs: mustprogress uwtable
define hidden noundef zeroext i1 @_ZNK7datalog14table_relation13contains_factERKNS_13relation_factE(ptr noundef nonnull align 8 dereferenceable(40) %0, ptr noundef nonnull align 8 dereferenceable(16) %1) unnamed_addr #3 align 2 personality ptr @__gxx_personality_v0 {
  %3 = alloca %class.svector, align 8
  call void @llvm.lifetime.start.p0(i64 8, ptr nonnull %3) #21
  store ptr null, ptr %3, align 8, !tbaa !15
  %4 = getelementptr inbounds nuw i8, ptr %0, i64 8
  %5 = load ptr, ptr %4, align 8, !tbaa !54
  %6 = getelementptr inbounds nuw i8, ptr %5, i64 24
  %7 = load ptr, ptr %6, align 8, !tbaa !23
  %8 = getelementptr inbounds nuw i8, ptr %0, i64 16
  invoke void @_ZN7datalog16relation_manager22relation_fact_to_tableERKNS_18relation_signatureERKNS_13relation_factER7svectorImjE(ptr noundef nonnull align 8 dereferenceable(200) %7, ptr noundef nonnull align 8 dereferenceable(8) %8, ptr noundef nonnull align 8 dereferenceable(16) %1, ptr noundef nonnull align 8 dereferenceable(8) %3)
          to label %9 unwind label %23

9:                                                ; preds = %2
  %10 = getelementptr inbounds nuw i8, ptr %0, i64 32
  %11 = load ptr, ptr %10, align 8, !tbaa !47
  %12 = load ptr, ptr %11, align 8, !tbaa !32
  %13 = getelementptr inbounds nuw i8, ptr %12, i64 56
  %14 = load ptr, ptr %13, align 8
  %15 = invoke noundef zeroext i1 %14(ptr noundef nonnull align 8 dereferenceable(36) %11, ptr noundef nonnull align 8 dereferenceable(8) %3)
          to label %16 unwind label %23

16:                                               ; preds = %9
  %17 = load ptr, ptr %3, align 8, !tbaa !15
  %.not.i.i = icmp eq ptr %17, null
  br i1 %.not.i.i, label %_ZN6vectorImLb0EjED2Ev.exit, label %18

18:                                               ; preds = %16
  %19 = getelementptr inbounds i8, ptr %17, i64 -8
  invoke void @_ZN6memory10deallocateEPv(ptr noundef nonnull %19)
          to label %_ZN6vectorImLb0EjED2Ev.exit unwind label %20

20:                                               ; preds = %18
  %21 = landingpad { ptr, i32 }
          catch ptr null
  %22 = extractvalue { ptr, i32 } %21, 0
  call void @__clang_call_terminate(ptr %22) #25
  unreachable

_ZN6vectorImLb0EjED2Ev.exit:                      ; preds = %16, %18
  call void @llvm.lifetime.end.p0(i64 8, ptr nonnull %3) #21
  ret i1 %15

23:                                               ; preds = %9, %2
  %24 = landingpad { ptr, i32 }
          cleanup
  call void @_ZN6vectorImLb0EjED2Ev(ptr noundef nonnull align 8 dereferenceable(8) %3) #21
  call void @llvm.lifetime.end.p0(i64 8, ptr nonnull %3) #21
  resume { ptr, i32 } %24
}